target datalayout = "e-m:e-p270:32:32-p271:32:32-p272:64:64-i64:64-i128:128-f80:128-n8:16:32:64-S128"
target triple = "x86_64-pc-linux-gnu"

%struct.uv_handle_s = type { ptr, ptr, i32, ptr, %struct.uv__queue, %union.anon, ptr, i32 }
%struct.uv__queue = type { ptr, ptr }
%union.anon = type { [4 x ptr] }
%struct.uv__io_s = type { ptr, %struct.uv__queue, %struct.uv__queue, i32, i32, i32 }
%struct.uv_stream_s = type { ptr, ptr, i32, ptr, %struct.uv__queue, %union.anon.0, ptr, i32, i64, ptr, ptr, ptr, ptr, %struct.uv__io_s, %struct.uv__queue, %struct.uv__queue, ptr, i32, i32, ptr }
%union.anon.0 = type { [4 x ptr] }
%struct.uv_udp_s = type { ptr, ptr, i32, ptr, %struct.uv__queue, %union.anon.1, ptr, i32, i64, i64, ptr, ptr, %struct.uv__io_s, %struct.uv__queue, %struct.uv__queue }
%union.anon.1 = type { [4 x ptr] }
%struct.uv_poll_s = type { ptr, ptr, i32, ptr, %struct.uv__queue, %union.anon.6, ptr, i32, ptr, %struct.uv__io_s }
%union.anon.6 = type { [4 x ptr] }

; Function Attrs: nounwind uwtable
define dso_local i32 @uv_fileno(ptr noundef %0, ptr noundef %1) #0 {
  %3 = alloca i32, align 4
  %4 = alloca ptr, align 8
  %5 = alloca ptr, align 8
  %6 = alloca i32, align 4
  %7 = alloca i32, align 4
  store ptr %0, ptr %4, align 8
  store ptr %1, ptr %5, align 8
  call void @llvm.lifetime.start.p0(i64 4, ptr %6) #11
  %8 = load ptr, ptr %4, align 8
  %9 = getelementptr inbounds nuw %struct.uv_handle_s, ptr %8, i32 0, i32 2
  %10 = load i32, ptr %9, align 8
  switch i32 %10, label %26 [
    i32 12, label %11
    i32 7, label %11
    i32 14, label %11
    i32 15, label %16
    i32 8, label %21
  ]

11:                                               ; preds = %2, %2, %2
  %12 = load ptr, ptr %4, align 8
  %13 = getelementptr inbounds nuw %struct.uv_stream_s, ptr %12, i32 0, i32 13
  %14 = getelementptr inbounds nuw %struct.uv__io_s, ptr %13, i32 0, i32 5
  %15 = load i32, ptr %14, align 8
  store i32 %15, ptr %6, align 4
  br label %27

16:                                               ; preds = %2
  %17 = load ptr, ptr %4, align 8
  %18 = getelementptr inbounds nuw %struct.uv_udp_s, ptr %17, i32 0, i32 12
  %19 = getelementptr inbounds nuw %struct.uv__io_s, ptr %18, i32 0, i32 5
  %20 = load i32, ptr %19, align 8
  store i32 %20, ptr %6, align 4
  br label %27

21:                                               ; preds = %2
  %22 = load ptr, ptr %4, align 8
  %23 = getelementptr inbounds nuw %struct.uv_poll_s, ptr %22, i32 0, i32 9
  %24 = getelementptr inbounds nuw %struct.uv__io_s, ptr %23, i32 0, i32 5
  %25 = load i32, ptr %24, align 8
  store i32 %25, ptr %6, align 4
  br label %27

26:                                               ; preds = %2
  store i32 -22, ptr %3, align 4
  store i32 1, ptr %7, align 4
  br label %40

27:                                               ; preds = %21, %16, %11
  %28 = load ptr, ptr %4, align 8
  %29 = getelementptr inbounds nuw %struct.uv_handle_s, ptr %28, i32 0, i32 7
  %30 = load i32, ptr %29, align 8
  %31 = and i32 %30, 3
  %32 = icmp ne i32 %31, 0
  br i1 %32, label %36, label %33

33:                                               ; preds = %27
  %34 = load i32, ptr %6, align 4
  %35 = icmp eq i32 %34, -1
  br i1 %35, label %36, label %37

36:                                               ; preds = %33, %27
  store i32 -9, ptr %3, align 4
  store i32 1, ptr %7, align 4
  br label %40

37:                                               ; preds = %33
  %38 = load i32, ptr %6, align 4
  %39 = load ptr, ptr %5, align 8
  store i32 %38, ptr %39, align 4
  store i32 0, ptr %3, align 4
  store i32 1, ptr %7, align 4
  br label %40

40:                                               ; preds = %37, %36, %26
  call void @llvm.lifetime.end.p0(i64 4, ptr %6) #11
  %41 = load i32, ptr %3, align 4
  ret i32 %41
}