; Function Attrs: mustprogress nofree norecurse nosync nounwind willreturn memory(argmem: readwrite) uwtable
define dso_local range(i32 -22, 1) i32 @uv_fileno(ptr noundef readonly captures(none) %0, ptr noundef writeonly captures(none) %1) local_unnamed_addr #11 {
  %3 = getelementptr inbounds nuw i8, ptr %0, i64 16
  %4 = load i32, ptr %3, align 8
  %switch.tableidx = add i32 %4, -7
  %5 = icmp ult i32 %switch.tableidx, 9
  br i1 %5, label %switch.hole_check, label %14

switch.hole_check:                                ; preds = %2
  %switch.maskindex = trunc nuw i32 %switch.tableidx to i16
  %switch.shifted = lshr i16 419, %switch.maskindex
  %switch.lobit = trunc i16 %switch.shifted to i1
  br i1 %switch.lobit, label %switch.lookup, label %14

switch.lookup:                                    ; preds = %switch.hole_check
  %6 = zext nneg i32 %switch.tableidx to i64
  %switch.gep = getelementptr inbounds nuw [9 x i64], ptr @switch.table.uv__getsockpeername, i64 0, i64 %6
  %switch.load = load i64, ptr %switch.gep, align 8
  %7 = getelementptr inbounds nuw i8, ptr %0, i64 %switch.load
  %.0 = load i32, ptr %7, align 8
  %8 = getelementptr inbounds nuw i8, ptr %0, i64 88
  %9 = load i32, ptr %8, align 8
  %10 = and i32 %9, 3
  %11 = icmp ne i32 %10, 0
  %12 = icmp eq i32 %.0, -1
  %or.cond = select i1 %11, i1 true, i1 %12
  br i1 %or.cond, label %14, label %13

13:                                               ; preds = %switch.lookup
  store i32 %.0, ptr %1, align 4
  br label %14

14:                                               ; preds = %switch.hole_check, %2, %switch.lookup, %13
  %.09 = phi i32 [ 0, %13 ], [ -22, %2 ], [ -9, %switch.lookup ], [ -22, %switch.hole_check ]
  ret i32 %.09
}